target datalayout = "e-m:e-p270:32:32-p271:32:32-p272:64:64-i64:64-i128:128-f80:128-n8:16:32:64-S128"
target triple = "x86_64-pc-linux-gnu"

; Function Attrs: inlinehint nounwind uwtable
define internal i64 @ossl_quic_vlint_encode_len(i64 noundef %0) #6 {
  %2 = alloca i64, align 8
  %3 = alloca i64, align 8
  store i64 %0, ptr %3, align 8, !tbaa !9
  %4 = load i64, ptr %3, align 8, !tbaa !9
  %5 = icmp ult i64 %4, 64
  br i1 %5, label %6, label %7

6:                                                ; preds = %1
  store i64 1, ptr %2, align 8
  br label %20

7:                                                ; preds = %1
  %8 = load i64, ptr %3, align 8, !tbaa !9
  %9 = icmp ult i64 %8, 16384
  br i1 %9, label %10, label %11

10:                                               ; preds = %7
  store i64 2, ptr %2, align 8
  br label %20

11:                                               ; preds = %7
  %12 = load i64, ptr %3, align 8, !tbaa !9
  %13 = icmp ult i64 %12, 1073741824
  br i1 %13, label %14, label %15

14:                                               ; preds = %11
  store i64 4, ptr %2, align 8
  br label %20

15:                                               ; preds = %11
  %16 = load i64, ptr %3, align 8, !tbaa !9
  %17 = icmp ule i64 %16, 4611686018427387903
  br i1 %17, label %18, label %19

18:                                               ; preds = %15
  store i64 8, ptr %2, align 8
  br label %20

19:                                               ; preds = %15
  store i64 0, ptr %2, align 8
  br label %20

20:                                               ; preds = %19, %18, %14, %10, %6
  %21 = load i64, ptr %2, align 8
  ret i64 %21
}

; Function Attrs: nounwind uwtable
define dso_local i32 @WPACKET_quic_write_vlint(ptr noundef %0, i64 noundef %1) #0 {
  %3 = alloca i32, align 4
  %4 = alloca ptr, align 8
  %5 = alloca i64, align 8
  %6 = alloca ptr, align 8
  %7 = alloca i64, align 8
  %8 = alloca i32, align 4
  store ptr %0, ptr %4, align 8, !tbaa !4
  store i64 %1, ptr %5, align 8, !tbaa !9
  call void @llvm.lifetime.start.p0(i64 8, ptr %6) #7
  store ptr null, ptr %6, align 8, !tbaa !25
  call void @llvm.lifetime.start.p0(i64 8, ptr %7) #7
  %9 = load i64, ptr %5, align 8, !tbaa !9
  %10 = call i64 @ossl_quic_vlint_encode_len(i64 noundef %9)
  store i64 %10, ptr %7, align 8, !tbaa !9
  %11 = load i64, ptr %7, align 8, !tbaa !9
  %12 = icmp eq i64 %11, 0
  br i1 %12, label %13, label %14

13:                                               ; preds = %2
  store i32 0, ptr %3, align 4
  store i32 1, ptr %8, align 4
  br label %23

14:                                               ; preds = %2
  %15 = load ptr, ptr %4, align 8, !tbaa !4
  %16 = load i64, ptr %7, align 8, !tbaa !9
  %17 = call i32 @WPACKET_allocate_bytes(ptr noundef %15, i64 noundef %16, ptr noundef %6)
  %18 = icmp eq i32 %17, 0
  br i1 %18, label %19, label %20

19:                                               ; preds = %14
  store i32 0, ptr %3, align 4
  store i32 1, ptr %8, align 4
  br label %23

20:                                               ; preds = %14
  %21 = load ptr, ptr %6, align 8, !tbaa !25
  %22 = load i64, ptr %5, align 8, !tbaa !9
  call void @ossl_quic_vlint_encode(ptr noundef %21, i64 noundef %22)
  store i32 1, ptr %3, align 4
  store i32 1, ptr %8, align 4
  br label %23

23:                                               ; preds = %20, %19, %13
  call void @llvm.lifetime.end.p0(i64 8, ptr %7) #7
  call void @llvm.lifetime.end.p0(i64 8, ptr %6) #7
  %24 = load i32, ptr %3, align 4
  ret i32 %24
}