; Function Attrs: nounwind uwtable
define dso_local range(i32 0, 2) i32 @WPACKET_quic_write_vlint(ptr noundef captures(none) %0, i64 noundef %1) local_unnamed_addr #0 {
  %3 = alloca ptr, align 8
  call void @llvm.lifetime.start.p0(i64 8, ptr nonnull %3) #12
  store ptr null, ptr %3, align 8, !tbaa !23
  %4 = icmp ult i64 %1, 64
  br i1 %4, label %select.unfold, label %5

5:                                                ; preds = %2
  %6 = icmp ult i64 %1, 16384
  br i1 %6, label %select.unfold, label %7

7:                                                ; preds = %5
  %8 = icmp ult i64 %1, 1073741824
  br i1 %8, label %select.unfold, label %9

9:                                                ; preds = %7
  %10 = icmp ult i64 %1, 4611686018427387904
  br i1 %10, label %select.unfold, label %ossl_quic_vlint_encode_len.exit

select.unfold:                                    ; preds = %9, %2, %5, %7
  %.0.i.ph = phi i64 [ 4, %7 ], [ 2, %5 ], [ 1, %2 ], [ 8, %9 ]
  %11 = call i32 @WPACKET_allocate_bytes(ptr noundef %0, i64 noundef %.0.i.ph, ptr noundef nonnull %3)
  %12 = icmp eq i32 %11, 0
  br i1 %12, label %ossl_quic_vlint_encode_len.exit, label %13

13:                                               ; preds = %select.unfold
  %14 = load ptr, ptr %3, align 8, !tbaa !23
  call void @ossl_quic_vlint_encode(ptr noundef %14, i64 noundef %1) #12
  br label %ossl_quic_vlint_encode_len.exit

ossl_quic_vlint_encode_len.exit:                  ; preds = %9, %select.unfold, %13
  %.0 = phi i32 [ 1, %13 ], [ 0, %select.unfold ], [ 0, %9 ]
  call void @llvm.lifetime.end.p0(i64 8, ptr nonnull %3) #12
  ret i32 %.0
}